; Function Attrs: null_pointer_is_valid sspstrong uwtable
define internal fastcc void @decode_GIAS_SubmitStandingQueryRequest_clear_intervals(ptr noundef %0, ptr noundef %1, ptr noundef %2, ptr noundef %3, ptr noundef %4, ptr noundef readonly captures(none) %5, i1 noundef zeroext %6) unnamed_addr #0 {
  %8 = getelementptr inbounds nuw i8, ptr %5, i64 7
  %9 = load i8, ptr %8, align 1
  switch i8 %9, label %21 [
    i8 0, label %10
    i8 1, label %16
  ]

10:                                               ; preds = %7
  %11 = load i32, ptr @hf_GIAS_SubmitStandingQueryRequest_clear_intervals_num_intervals, align 4
  %12 = load i32, ptr %4, align 4
  %13 = add i32 %12, -4
  %14 = tail call i32 @get_CDR_ulong(ptr noundef %0, ptr noundef %4, i1 noundef zeroext %6, i32 noundef 12)
  %15 = tail call ptr @proto_tree_add_uint(ptr noundef %2, i32 noundef %11, ptr noundef %0, i32 noundef %13, i32 noundef 4, i32 noundef %14)
  br label %24

16:                                               ; preds = %7
  %17 = getelementptr inbounds nuw i8, ptr %5, i64 16
  %18 = load i32, ptr %17, align 8
  %switch = icmp ult i32 %18, 2
  br i1 %switch, label %24, label %19

19:                                               ; preds = %16
  %20 = tail call ptr (ptr, ptr, ptr, ptr, ...) @expert_add_info_format(ptr noundef %1, ptr noundef %3, ptr noundef nonnull @ei_gias_unknown_exception, ptr noundef nonnull @.str.826, i32 noundef %18)
  br label %24

21:                                               ; preds = %7
  %22 = zext i8 %9 to i32
  %23 = tail call ptr (ptr, ptr, ptr, ptr, ...) @expert_add_info_format(ptr noundef %1, ptr noundef %3, ptr noundef nonnull @ei_gias_unknown_giop_msg, ptr noundef nonnull @.str.827, i32 noundef %22)
  br label %24

24:                                               ; preds = %16, %19, %21, %10
  ret void
}